target datalayout = "e-m:e-p270:32:32-p271:32:32-p272:64:64-i64:64-i128:128-f80:128-n8:16:32:64-S128"
target triple = "x86_64-pc-linux-gnu"

; Function Attrs: mustprogress uwtable
define dso_local noundef float @_ZN3igl6opengl4glfw5imgui11ImGuiPlugin13hidpi_scalingEv(ptr noundef nonnull align 8 dereferenceable(88) %0) #3 align 2 {
  %2 = alloca ptr, align 8
  %3 = alloca float, align 4
  %4 = alloca float, align 4
  %5 = alloca ptr, align 8
  store ptr %0, ptr %2, align 8, !tbaa !15
  call void @llvm.lifetime.start.p0(i64 4, ptr %3) #5
  call void @llvm.lifetime.start.p0(i64 4, ptr %4) #5
  call void @llvm.lifetime.start.p0(i64 8, ptr %5) #5
  %6 = call ptr @glfwGetCurrentContext()
  store ptr %6, ptr %5, align 8, !tbaa !105
  %7 = load ptr, ptr %5, align 8, !tbaa !105
  call void @glfwGetWindowContentScale(ptr noundef %7, ptr noundef %3, ptr noundef %4)
  %8 = load float, ptr %3, align 4, !tbaa !106
  %9 = load float, ptr %4, align 4, !tbaa !106
  %10 = fadd float %8, %9
  %11 = fpext float %10 to double
  %12 = fmul double 5.000000e-01, %11
  %13 = fptrunc double %12 to float
  call void @llvm.lifetime.end.p0(i64 8, ptr %5) #5
  call void @llvm.lifetime.end.p0(i64 4, ptr %4) #5
  call void @llvm.lifetime.end.p0(i64 4, ptr %3) #5
  ret float %13
}