; Function Attrs: mustprogress uwtable
define dso_local noundef float @_ZN3igl6opengl4glfw5imgui11ImGuiPlugin13hidpi_scalingEv(ptr noundef nonnull readnone align 8 captures(none) dereferenceable(88) %0) local_unnamed_addr #0 align 2 {
  %2 = alloca float, align 4
  %3 = alloca float, align 4
  call void @llvm.lifetime.start.p0(i64 4, ptr nonnull %2) #9
  call void @llvm.lifetime.start.p0(i64 4, ptr nonnull %3) #9
  %4 = tail call ptr @glfwGetCurrentContext()
  call void @glfwGetWindowContentScale(ptr noundef %4, ptr noundef nonnull %2, ptr noundef nonnull %3)
  %5 = load float, ptr %2, align 4, !tbaa !76
  %6 = load float, ptr %3, align 4, !tbaa !76
  %7 = fadd float %5, %6
  %8 = fmul float %7, 5.000000e-01
  call void @llvm.lifetime.end.p0(i64 4, ptr nonnull %3) #9
  call void @llvm.lifetime.end.p0(i64 4, ptr nonnull %2) #9
  ret float %8
}